target datalayout = "e-m:e-p270:32:32-p271:32:32-p272:64:64-i64:64-i128:128-f80:128-n8:16:32:64-S128"
target triple = "x86_64-pc-linux-gnu"

%"class.net::QuicTime::Delta" = type { %"class.base::TimeDelta", i64 }
%"class.base::TimeDelta" = type { i64 }
%"class.net::QuicBandwidth" = type { i64 }
%"class.net::CachedNetworkParameters" = type { %"class.google::protobuf::MessageLite", %"struct.google::protobuf::internal::ArenaStringPtr", ptr, [1 x i32], i32, %"struct.google::protobuf::internal::ArenaStringPtr", i32, i32, i64, i32, i32, i64 }
%"class.google::protobuf::MessageLite" = type { ptr }
%"struct.google::protobuf::internal::ArenaStringPtr" = type { ptr }

; Function Attrs: mustprogress nounwind uwtable
define linkonce_odr void @_ZN4base9TimeDeltaC2Ev(ptr noundef nonnull align 8 dereferenceable(8) %0) unnamed_addr #3 comdat align 2 {
  %2 = alloca ptr, align 8
  store ptr %0, ptr %2, align 8, !tbaa !112
  %3 = load ptr, ptr %2, align 8
  %4 = getelementptr inbounds nuw %"class.base::TimeDelta", ptr %3, i32 0, i32 0
  store i64 0, ptr %4, align 8, !tbaa !114
  ret void
}

; Function Attrs: inlinehint mustprogress uwtable
define linkonce_odr void @_ZN3net8QuicTime5DeltaC2El(ptr noundef nonnull align 8 dereferenceable(16) %0, i64 noundef %1) unnamed_addr #6 comdat align 2 {
  %3 = alloca ptr, align 8
  %4 = alloca i64, align 8
  store ptr %0, ptr %3, align 8, !tbaa !98
  store i64 %1, ptr %4, align 8, !tbaa !56
  %5 = load ptr, ptr %3, align 8
  %6 = getelementptr inbounds nuw %"class.net::QuicTime::Delta", ptr %5, i32 0, i32 0
  call void @_ZN4base9TimeDeltaC2Ev(ptr noundef nonnull align 8 dereferenceable(8) %6)
  %7 = getelementptr inbounds nuw %"class.net::QuicTime::Delta", ptr %5, i32 0, i32 1
  %8 = load i64, ptr %4, align 8, !tbaa !56
  store i64 %8, ptr %7, align 8, !tbaa !100
  ret void
}

; Function Attrs: inlinehint mustprogress uwtable
define linkonce_odr { i64, i64 } @_ZN3net8QuicTime5Delta16FromMillisecondsEl(i64 noundef %0) #6 comdat align 2 {
  %2 = alloca %"class.net::QuicTime::Delta", align 8
  %3 = alloca i64, align 8
  store i64 %0, ptr %3, align 8, !tbaa !56
  %4 = load i64, ptr %3, align 8, !tbaa !56
  %5 = mul nsw i64 %4, 1000
  call void @_ZN3net8QuicTime5DeltaC2El(ptr noundef nonnull align 8 dereferenceable(16) %2, i64 noundef %5)
  %6 = load { i64, i64 }, ptr %2, align 8
  ret { i64, i64 } %6
}

; Function Attrs: inlinehint mustprogress nounwind uwtable
define linkonce_odr noundef i32 @_ZNK3net23CachedNetworkParameters10min_rtt_msEv(ptr noundef nonnull align 8 dereferenceable(72) %0) #1 comdat align 2 {
  %2 = alloca ptr, align 8
  store ptr %0, ptr %2, align 8, !tbaa !53
  %3 = load ptr, ptr %2, align 8
  %4 = getelementptr inbounds nuw %"class.net::CachedNetworkParameters", ptr %3, i32 0, i32 9
  %5 = load i32, ptr %4, align 8, !tbaa !65
  ret i32 %5
}

; Function Attrs: inlinehint mustprogress nounwind uwtable
define linkonce_odr noundef i32 @_ZNK3net23CachedNetworkParameters35bandwidth_estimate_bytes_per_secondEv(ptr noundef nonnull align 8 dereferenceable(72) %0) #1 comdat align 2 {
  %2 = alloca ptr, align 8
  store ptr %0, ptr %2, align 8, !tbaa !53
  %3 = load ptr, ptr %2, align 8
  %4 = getelementptr inbounds nuw %"class.net::CachedNetworkParameters", ptr %3, i32 0, i32 6
  %5 = load i32, ptr %4, align 8, !tbaa !64
  ret i32 %5
}

; Function Attrs: inlinehint mustprogress nounwind uwtable
define linkonce_odr noundef i32 @_ZNK3net23CachedNetworkParameters39max_bandwidth_estimate_bytes_per_secondEv(ptr noundef nonnull align 8 dereferenceable(72) %0) #1 comdat align 2 {
  %2 = alloca ptr, align 8
  store ptr %0, ptr %2, align 8, !tbaa !53
  %3 = load ptr, ptr %2, align 8
  %4 = getelementptr inbounds nuw %"class.net::CachedNetworkParameters", ptr %3, i32 0, i32 7
  %5 = load i32, ptr %4, align 4, !tbaa !58
  ret i32 %5
}

; Function Attrs: mustprogress uwtable
define void @_ZN3net18TcpCubicSenderBase21ResumeConnectionStateERKNS_23CachedNetworkParametersEb(ptr noundef nonnull align 8 dereferenceable(141) %0, ptr noundef nonnull align 8 dereferenceable(72) %1, i1 noundef zeroext %2) unnamed_addr #0 align 2 {
  %4 = alloca ptr, align 8
  %5 = alloca ptr, align 8
  %6 = alloca i8, align 1
  %7 = alloca %"class.net::QuicBandwidth", align 8
  %8 = alloca %"class.net::QuicTime::Delta", align 8
  %9 = alloca %"class.net::QuicBandwidth", align 8
  %10 = alloca %"class.net::QuicTime::Delta", align 8
  store ptr %0, ptr %4, align 8, !tbaa !3
  store ptr %1, ptr %5, align 8, !tbaa !53
  %11 = zext i1 %2 to i8
  store i8 %11, ptr %6, align 1, !tbaa !12
  %12 = load ptr, ptr %4, align 8
  call void @llvm.lifetime.start.p0(i64 8, ptr %7) #13
  %13 = load i8, ptr %6, align 1, !tbaa !12, !range !29, !noundef !30
  %14 = trunc i8 %13 to i1
  br i1 %14, label %15, label %18

15:                                               ; preds = %3
  %16 = load ptr, ptr %5, align 8, !tbaa !53
  %17 = call noundef i32 @_ZNK3net23CachedNetworkParameters39max_bandwidth_estimate_bytes_per_secondEv(ptr noundef nonnull align 8 dereferenceable(72) %16)
  br label %21

18:                                               ; preds = %3
  %19 = load ptr, ptr %5, align 8, !tbaa !53
  %20 = call noundef i32 @_ZNK3net23CachedNetworkParameters35bandwidth_estimate_bytes_per_secondEv(ptr noundef nonnull align 8 dereferenceable(72) %19)
  br label %21

21:                                               ; preds = %18, %15
  %22 = phi i32 [ %17, %15 ], [ %20, %18 ]
  %23 = sext i32 %22 to i64
  %24 = call i64 @_ZN3net13QuicBandwidth18FromBytesPerSecondEl(i64 noundef %23)
  %25 = getelementptr inbounds nuw %"class.net::QuicBandwidth", ptr %7, i32 0, i32 0
  store i64 %24, ptr %25, align 8
  call void @llvm.lifetime.start.p0(i64 16, ptr %8) #13
  %26 = load ptr, ptr %5, align 8, !tbaa !53
  %27 = call noundef i32 @_ZNK3net23CachedNetworkParameters10min_rtt_msEv(ptr noundef nonnull align 8 dereferenceable(72) %26)
  %28 = sext i32 %27 to i64
  %29 = call { i64, i64 } @_ZN3net8QuicTime5Delta16FromMillisecondsEl(i64 noundef %28)
  %30 = getelementptr inbounds nuw { i64, i64 }, ptr %8, i32 0, i32 0
  %31 = extractvalue { i64, i64 } %29, 0
  store i64 %31, ptr %30, align 8
  %32 = getelementptr inbounds nuw { i64, i64 }, ptr %8, i32 0, i32 1
  %33 = extractvalue { i64, i64 } %29, 1
  store i64 %33, ptr %32, align 8
  call void @llvm.memcpy.p0.p0.i64(ptr align 8 %9, ptr align 8 %7, i64 8, i1 false), !tbaa.struct !55
  call void @llvm.memcpy.p0.p0.i64(ptr align 8 %10, ptr align 8 %8, i64 16, i1 false), !tbaa.struct !57
  %34 = getelementptr inbounds nuw %"class.net::QuicBandwidth", ptr %9, i32 0, i32 0
  %35 = load i64, ptr %34, align 8
  %36 = getelementptr inbounds nuw { i64, i64 }, ptr %10, i32 0, i32 0
  %37 = load i64, ptr %36, align 8
  %38 = getelementptr inbounds nuw { i64, i64 }, ptr %10, i32 0, i32 1
  %39 = load i64, ptr %38, align 8
  %40 = load ptr, ptr %12, align 8, !tbaa !16
  %41 = getelementptr inbounds ptr, ptr %40, i64 20
  %42 = load ptr, ptr %41, align 8
  call void %42(ptr noundef nonnull align 8 dereferenceable(141) %12, i64 %35, i64 %37, i64 %39)
  call void @llvm.lifetime.end.p0(i64 16, ptr %8) #13
  call void @llvm.lifetime.end.p0(i64 8, ptr %7) #13
  ret void
}