; Function Attrs: mustprogress uwtable
define void @_ZN3net18TcpCubicSenderBase21ResumeConnectionStateERKNS_23CachedNetworkParametersEb(ptr noundef nonnull align 8 dereferenceable(141) %0, ptr noundef nonnull readonly align 8 captures(none) dereferenceable(72) %1, i1 noundef zeroext %2) unnamed_addr #0 align 2 {
  %4 = getelementptr inbounds nuw i8, ptr %1, i64 44
  %5 = load i32, ptr %4, align 4
  %6 = getelementptr inbounds nuw i8, ptr %1, i64 40
  %7 = load i32, ptr %6, align 8
  %8 = select i1 %2, i32 %5, i32 %7
  %9 = sext i32 %8 to i64
  %10 = tail call i64 @_ZN3net13QuicBandwidth18FromBytesPerSecondEl(i64 noundef %9)
  %11 = getelementptr inbounds nuw i8, ptr %1, i64 56
  %12 = load i32, ptr %11, align 8, !tbaa !31
  %13 = sext i32 %12 to i64
  %14 = mul nsw i64 %13, 1000
  %15 = load ptr, ptr %0, align 8, !tbaa !3
  %16 = getelementptr inbounds nuw i8, ptr %15, i64 160
  %17 = load ptr, ptr %16, align 8
  tail call void %17(ptr noundef nonnull align 8 dereferenceable(141) %0, i64 %10, i64 0, i64 %14)
  ret void
}